; Function Attrs: mustprogress nounwind uwtable
define hidden void @_ZN6hermes2vm18StatSamplingThreadD2Ev(ptr noundef nonnull align 8 dereferenceable(184) %this) unnamed_addr #0 align 2 {
entry:
  %sampler_.i = getelementptr inbounds i8, ptr %this, i64 176
  %agg.tmp.sroa.0.0.copyload.i.i = load i64, ptr %sampler_.i, align 8
  %cmp.i.i.i.not = icmp eq i64 %agg.tmp.sroa.0.0.copyload.i.i, 0
  br i1 %cmp.i.i.i.not, label %_ZNSt6threadD2Ev.exit, label %if.then

if.then:                                          ; preds = %entry
  %mExit_.i = getelementptr inbounds i8, ptr %this, i64 8
  %call1.i.i.i.i.i = tail call noundef i32 @pthread_mutex_lock(ptr noundef nonnull %mExit_.i) #10
  %tobool.not.i.i.i.i = icmp eq i32 %call1.i.i.i.i.i, 0
  br i1 %tobool.not.i.i.i.i, label %if.end, label %if.then.i.i.i.i

if.then.i.i.i.i:                                  ; preds = %if.then
  tail call void @_ZSt20__throw_system_errori(i32 noundef %call1.i.i.i.i.i) #12
  unreachable

if.end:                                           ; preds = %if.then
  store i8 1, ptr %this, align 8
  %call1.i.i.i.i2.i = tail call noundef i32 @pthread_mutex_unlock(ptr noundef nonnull %mExit_.i) #10
  %exitMonitor_.i = getelementptr inbounds i8, ptr %this, i64 48
  tail call void @_ZNSt18condition_variable10notify_oneEv(ptr noundef nonnull align 8 dereferenceable(48) %exitMonitor_.i) #10
  tail call void @_ZNSt6thread4joinEv(ptr noundef nonnull align 8 dereferenceable(8) %sampler_.i) #10
  %stats_.i.i = getelementptr inbounds i8, ptr %this, i64 104
  %call.i.i = tail call { i64, i64 } @_ZNK6hermes2vm12ProcessStats17getIntegratedInfoEv(ptr noundef nonnull align 8 dereferenceable(72) %stats_.i.i) #10
  %agg.tmp.sroa.0.0.copyload.i.i2.pr = load i64, ptr %sampler_.i, align 8
  %cmp.i.i.not.i = icmp eq i64 %agg.tmp.sroa.0.0.copyload.i.i2.pr, 0
  br i1 %cmp.i.i.not.i, label %_ZNSt6threadD2Ev.exit, label %if.then.i

if.then.i:                                        ; preds = %if.end
  tail call void @_ZSt9terminatev() #12
  unreachable

_ZNSt6threadD2Ev.exit:                            ; preds = %entry, %if.end
  %exitMonitor_ = getelementptr inbounds i8, ptr %this, i64 48
  tail call void @_ZNSt18condition_variableD1Ev(ptr noundef nonnull align 8 dereferenceable(48) %exitMonitor_) #10
  ret void
}